; Function Attrs: mustprogress nofree norecurse nosync nounwind willreturn memory(read, inaccessiblemem: none) uwtable
define dso_local noundef i64 @_ZN9struct_pb8internal15get_needed_sizeIN6google8protobuf19EnumDescriptorProto17EnumReservedRangeEEEmRKT_RKNS_13UnknownFieldsE(ptr nocapture noundef nonnull readonly align 4 dereferenceable(16) %t, ptr nocapture noundef nonnull readonly align 8 dereferenceable(24) %unknown_fields) local_unnamed_addr #3 {
entry:
  %0 = load ptr, ptr %unknown_fields, align 8
  %_M_finish.i.i = getelementptr inbounds i8, ptr %unknown_fields, i64 8
  %1 = load ptr, ptr %_M_finish.i.i, align 8
  %cmp.i5.i = icmp eq ptr %0, %1
  br i1 %cmp.i5.i, label %_ZNK9struct_pb13UnknownFields10total_sizeEv.exit, label %for.body.i

for.body.i:                                       ; preds = %entry, %for.body.i
  %total.07.i = phi i64 [ %add.i, %for.body.i ], [ 0, %entry ]
  %__begin2.sroa.0.06.i = phi ptr [ %incdec.ptr.i.i, %for.body.i ], [ %0, %entry ]
  %len.i = getelementptr inbounds i8, ptr %__begin2.sroa.0.06.i, i64 8
  %2 = load i64, ptr %len.i, align 8
  %add.i = add i64 %2, %total.07.i
  %incdec.ptr.i.i = getelementptr inbounds i8, ptr %__begin2.sroa.0.06.i, i64 16
  %cmp.i.i = icmp eq ptr %incdec.ptr.i.i, %1
  br i1 %cmp.i.i, label %_ZNK9struct_pb13UnknownFields10total_sizeEv.exit, label %for.body.i

_ZNK9struct_pb13UnknownFields10total_sizeEv.exit: ; preds = %for.body.i, %entry
  %total.0.lcssa.i = phi i64 [ 0, %entry ], [ %add.i, %for.body.i ]
  %_M_engaged.i.i = getelementptr inbounds i8, ptr %t, i64 4
  %3 = load i8, ptr %_M_engaged.i.i, align 4
  %4 = and i8 %3, 1
  %tobool.i.i.not = icmp eq i8 %4, 0
  br i1 %tobool.i.i.not, label %if.end, label %_ZNKRSt8optionalIiE5valueEv.exit

_ZNKRSt8optionalIiE5valueEv.exit:                 ; preds = %_ZNK9struct_pb13UnknownFields10total_sizeEv.exit
  %5 = load i32, ptr %t, align 4
  %conv = sext i32 %5 to i64
  br label %do.body.i17

do.body.i17:                                      ; preds = %do.body.i17, %_ZNKRSt8optionalIiE5valueEv.exit
  %ret.i16.0 = phi i64 [ 0, %_ZNKRSt8optionalIiE5valueEv.exit ], [ %inc.i18, %do.body.i17 ]
  %v.addr.i15.0 = phi i64 [ %conv, %_ZNKRSt8optionalIiE5valueEv.exit ], [ %shr.i19, %do.body.i17 ]
  %inc.i18 = add nuw nsw i64 %ret.i16.0, 1
  %shr.i19 = lshr i64 %v.addr.i15.0, 7
  %cmp.i20.not = icmp ult i64 %v.addr.i15.0, 128
  br i1 %cmp.i20.not, label %_ZN9struct_pb8internal21calculate_varint_sizeEm.exit21, label %do.body.i17, !llvm.loop !5

_ZN9struct_pb8internal21calculate_varint_sizeEm.exit21: ; preds = %do.body.i17
  %add = add i64 %total.0.lcssa.i, 2
  %add5 = add i64 %add, %ret.i16.0
  br label %if.end

if.end:                                           ; preds = %_ZN9struct_pb8internal21calculate_varint_sizeEm.exit21, %_ZNK9struct_pb13UnknownFields10total_sizeEv.exit
  %total.0 = phi i64 [ %add5, %_ZN9struct_pb8internal21calculate_varint_sizeEm.exit21 ], [ %total.0.lcssa.i, %_ZNK9struct_pb13UnknownFields10total_sizeEv.exit ]
  %_M_engaged.i.i11 = getelementptr inbounds i8, ptr %t, i64 12
  %6 = load i8, ptr %_M_engaged.i.i11, align 4
  %7 = and i8 %6, 1
  %tobool.i.i12.not = icmp eq i8 %7, 0
  br i1 %tobool.i.i12.not, label %if.end14, label %_ZNKRSt8optionalIiE5valueEv.exit16

_ZNKRSt8optionalIiE5valueEv.exit16:               ; preds = %if.end
  %end = getelementptr inbounds i8, ptr %t, i64 8
  %8 = load i32, ptr %end, align 4
  %conv10 = sext i32 %8 to i64
  br label %do.body.i

do.body.i:                                        ; preds = %do.body.i, %_ZNKRSt8optionalIiE5valueEv.exit16
  %v.addr.i.0 = phi i64 [ %conv10, %_ZNKRSt8optionalIiE5valueEv.exit16 ], [ %shr.i, %do.body.i ]
  %ret.i.0 = phi i64 [ 0, %_ZNKRSt8optionalIiE5valueEv.exit16 ], [ %inc.i, %do.body.i ]
  %inc.i = add nuw nsw i64 %ret.i.0, 1
  %shr.i = lshr i64 %v.addr.i.0, 7
  %cmp.i.not = icmp ult i64 %v.addr.i.0, 128
  br i1 %cmp.i.not, label %_ZN9struct_pb8internal21calculate_varint_sizeEm.exit, label %do.body.i, !llvm.loop !5

_ZN9struct_pb8internal21calculate_varint_sizeEm.exit: ; preds = %do.body.i
  %add12 = add i64 %total.0, 2
  %add13 = add i64 %add12, %ret.i.0
  br label %if.end14

if.end14:                                         ; preds = %_ZN9struct_pb8internal21calculate_varint_sizeEm.exit, %if.end
  %total.1 = phi i64 [ %add13, %_ZN9struct_pb8internal21calculate_varint_sizeEm.exit ], [ %total.0, %if.end ]
  ret i64 %total.1
}